target datalayout = "e-m:e-p270:32:32-p271:32:32-p272:64:64-i64:64-i128:128-f80:128-n8:16:32:64-S128"
target triple = "x86_64-pc-linux-gnu"

@.str.17 = private unnamed_addr constant [49 x i8] c"Unable disable inline OOB messages on socket: %m\00", align 1

; Function Attrs: nounwind uwtable
define dso_local void @fd_set_oob(i32 noundef %0, i32 noundef %1) #0 {
  %3 = alloca i32, align 4
  %4 = alloca i32, align 4
  store i32 %0, ptr %3, align 4
  store i32 %1, ptr %4, align 4
  %5 = load i32, ptr %3, align 4
  %6 = call i32 @setsockopt(i32 noundef %5, i32 noundef 1, i32 noundef 10, ptr noundef %4, i32 noundef 4) #10
  %7 = icmp ne i32 %6, 0
  br i1 %7, label %8, label %9

8:                                                ; preds = %2
  call void (ptr, ...) @fatal(ptr noundef @.str.17) #13
  unreachable

9:                                                ; preds = %2
  ret void
}