; Function Attrs: nounwind uwtable
define dso_local void @fd_set_oob(i32 noundef %0, i32 noundef %1) local_unnamed_addr #0 {
  %3 = alloca i32, align 4
  store i32 %1, ptr %3, align 4
  %4 = call i32 @setsockopt(i32 noundef %0, i32 noundef 1, i32 noundef 10, ptr noundef nonnull %3, i32 noundef 4) #10
  %.not = icmp eq i32 %4, 0
  br i1 %.not, label %6, label %5

5:                                                ; preds = %2
  call void (ptr, ...) @fatal(ptr noundef nonnull @.str.17) #12
  unreachable

6:                                                ; preds = %2
  ret void
}